	.section	__TEXT,__text,regular,pure_instructions
	.build_version macos, 10, 14	sdk_version 10, 14
	.globl	_test                   ## -- Begin function test
	.p2align	4, 0x90
_test:                                  ## @test
Lfunc_begin0:
	.file	1 "/Users/SimonAertssen/Desktop/Zelfstudie/6.172 Performance Engineering of Software Systems/MIT-6.172-Performance-Engineering-of-Software-Systems/Week 3 Vectorization/recitation3" "example4.c"
	.loc	1 10 0                  ## example4.c:10:0
	.cfi_startproc
## %bb.0:
	pushq	%rbp
	.cfi_def_cfa_offset 16
	.cfi_offset %rbp, -16
	movq	%rsp, %rbp
	.cfi_def_cfa_register %rbp
	##DEBUG_VALUE: test:a <- $rdi
	##DEBUG_VALUE: test:a <- $rdi
Ltmp0:
	##DEBUG_VALUE: test:x <- $rdi
	##DEBUG_VALUE: test:x <- $rdi
	xorpd	%xmm1, %xmm1
	xorl	%eax, %eax
Ltmp1:
	##DEBUG_VALUE: test:i <- 0
	##DEBUG_VALUE: test:y <- 0.000000e+00
	xorpd	%xmm0, %xmm0
	.p2align	4, 0x90
LBB0_1:                                 ## =>This Inner Loop Header: Depth=1
	##DEBUG_VALUE: test:x <- $rdi
	##DEBUG_VALUE: test:a <- $rdi
Ltmp2:
	.loc	1 18 7 prologue_end     ## example4.c:18:7
	addpd	(%rdi,%rax,8), %xmm1
	addpd	16(%rdi,%rax,8), %xmm0
	addpd	32(%rdi,%rax,8), %xmm1
	addpd	48(%rdi,%rax,8), %xmm0
	addpd	64(%rdi,%rax,8), %xmm1
	addpd	80(%rdi,%rax,8), %xmm0
	addpd	96(%rdi,%rax,8), %xmm1
	addpd	112(%rdi,%rax,8), %xmm0
Ltmp3:
	.loc	1 17 26                 ## example4.c:17:26
	addq	$16, %rax
	cmpq	$65536, %rax            ## imm = 0x10000
	jne	LBB0_1
## %bb.2:
	##DEBUG_VALUE: test:x <- $rdi
	##DEBUG_VALUE: test:a <- $rdi
Ltmp4:
	.loc	1 18 7                  ## example4.c:18:7
	addpd	%xmm1, %xmm0
	haddpd	%xmm0, %xmm0
Ltmp5:
	##DEBUG_VALUE: test:y <- undef
	.loc	1 20 3                  ## example4.c:20:3
	popq	%rbp
	retq
Ltmp6:
Lfunc_end0:
	.cfi_endproc
                                        ## -- End function
	.section	__TEXT,__literal8,8byte_literals
	.p2align	3               ## -- Begin function main
LCPI1_0:
	.quad	4607182418800017408     ## double 1
	.section	__TEXT,__text,regular,pure_instructions
	.globl	_main
	.p2align	4, 0x90
_main:                                  ## @main
Lfunc_begin1:
	.loc	1 23 0                  ## example4.c:23:0
	.cfi_startproc
## %bb.0:
	pushq	%rbp
	.cfi_def_cfa_offset 16
	.cfi_offset %rbp, -16
	movq	%rsp, %rbp
	.cfi_def_cfa_register %rbp
	subq	$524320, %rsp           ## imm = 0x80020
	movq	___stack_chk_guard@GOTPCREL(%rip), %rax
	movq	(%rax), %rax
	movq	%rax, -8(%rbp)
	movl	$1, %eax
Ltmp7:
	##DEBUG_VALUE: i <- 0
	movsd	LCPI1_0(%rip), %xmm0    ## xmm0 = mem[0],zero
	.p2align	4, 0x90
LBB1_1:                                 ## =>This Inner Loop Header: Depth=1
Ltmp8:
	##DEBUG_VALUE: i <- undef
	.loc	1 26 22 prologue_end    ## example4.c:26:22
	xorps	%xmm1, %xmm1
	cvtsi2sdl	%eax, %xmm1
	.loc	1 26 15 is_stmt 0       ## example4.c:26:15
	movapd	%xmm0, %xmm2
	divsd	%xmm1, %xmm2
	.loc	1 26 10                 ## example4.c:26:10
	movsd	%xmm2, -524312(%rbp,%rax,8)
Ltmp9:
	##DEBUG_VALUE: i <- [DW_OP_plus_uconst 1, DW_OP_stack_value] undef
	.loc	1 26 22                 ## example4.c:26:22
	addsd	%xmm0, %xmm1
	.loc	1 26 15                 ## example4.c:26:15
	movapd	%xmm0, %xmm2
	divsd	%xmm1, %xmm2
	.loc	1 26 10                 ## example4.c:26:10
	movsd	%xmm2, -524304(%rbp,%rax,8)
Ltmp10:
	##DEBUG_VALUE: i <- [DW_OP_plus_uconst 1, DW_OP_stack_value] undef
	.loc	1 25 21 is_stmt 1       ## example4.c:25:21
	addq	$2, %rax
	cmpq	$65537, %rax            ## imm = 0x10001
Ltmp11:
	.loc	1 25 3 is_stmt 0        ## example4.c:25:3
	jne	LBB1_1
Ltmp12:
## %bb.2:
	.loc	1 0 3                   ## example4.c:0:3
	xorpd	%xmm1, %xmm1
	xorl	%eax, %eax
	xorpd	%xmm0, %xmm0
	.p2align	4, 0x90
LBB1_3:                                 ## =>This Inner Loop Header: Depth=1
Ltmp13:
	.loc	1 18 7 is_stmt 1        ## example4.c:18:7
	addpd	-524304(%rbp,%rax,8), %xmm1
	addpd	-524288(%rbp,%rax,8), %xmm0
	addpd	-524272(%rbp,%rax,8), %xmm1
	addpd	-524256(%rbp,%rax,8), %xmm0
	addpd	-524240(%rbp,%rax,8), %xmm1
	addpd	-524224(%rbp,%rax,8), %xmm0
	addpd	-524208(%rbp,%rax,8), %xmm1
	addpd	-524192(%rbp,%rax,8), %xmm0
Ltmp14:
	.loc	1 17 26                 ## example4.c:17:26
	addq	$16, %rax
	cmpq	$65536, %rax            ## imm = 0x10000
	jne	LBB1_3
## %bb.4:
Ltmp15:
	.loc	1 18 7                  ## example4.c:18:7
	addpd	%xmm1, %xmm0
	haddpd	%xmm0, %xmm0
Ltmp16:
	##DEBUG_VALUE: main:sum <- undef
	##DEBUG_VALUE: test:y <- undef
	.loc	1 29 3                  ## example4.c:29:3
	movapd	%xmm0, -524320(%rbp)    ## 16-byte Spill
	leaq	L_.str(%rip), %rdi
	movb	$1, %al
	callq	_printf
Ltmp17:
	.loc	1 30 3                  ## example4.c:30:3
	leaq	L_.str.1(%rip), %rdi
	movb	$1, %al
	movaps	-524320(%rbp), %xmm0    ## 16-byte Reload
	callq	_printf
Ltmp18:
	.loc	1 0 3 is_stmt 0         ## example4.c:0:3
	movq	___stack_chk_guard@GOTPCREL(%rip), %rax
	movq	(%rax), %rax
	cmpq	-8(%rbp), %rax
	jne	LBB1_6
## %bb.5:
	.loc	1 31 1 is_stmt 1        ## example4.c:31:1
	xorl	%eax, %eax
	addq	$524320, %rsp           ## imm = 0x80020
	popq	%rbp
	retq
Ltmp19:
LBB1_6:
	.loc	1 0 1 is_stmt 0         ## example4.c:0:1
	callq	___stack_chk_fail
Ltmp20:
Lfunc_end1:
	.cfi_endproc
	.file	2 "/Users/SimonAertssen/Desktop/Zelfstudie/6.172 Performance Engineering of Software Systems/MIT-6.172-Performance-Engineering-of-Software-Systems/Week 3 Vectorization/recitation3" "/Library/Developer/CommandLineTools/SDKs/MacOSX10.14.sdk/usr/include/i386/_types.h"
	.file	3 "/Users/SimonAertssen/Desktop/Zelfstudie/6.172 Performance Engineering of Software Systems/MIT-6.172-Performance-Engineering-of-Software-Systems/Week 3 Vectorization/recitation3" "/Library/Developer/CommandLineTools/SDKs/MacOSX10.14.sdk/usr/include/sys/_types/_size_t.h"
                                        ## -- End function
	.section	__TEXT,__cstring,cstring_literals
L_.str:                                 ## @.str
	.asciz	"The decimal floating point sum result is: %f\n"

L_.str.1:                               ## @.str.1
	.asciz	"The raw floating point sum result is: %a\n"
